target datalayout = "e-m:e-p270:32:32-p271:32:32-p272:64:64-i64:64-i128:128-f80:128-n8:16:32:64-S128"
target triple = "x86_64-pc-linux-gnu"

%struct.Hmac = type { %union.wc_Hashes, [36 x i32], [36 x i32], [16 x i32], ptr, i8, i8 }
%union.wc_Hashes = type { %struct.wc_Sha3 }
%struct.wc_Sha3 = type { [25 x i64], [200 x i8], i8, ptr }

; Function Attrs: inlinehint nounwind uwtable
define internal i32 @ctMaskWord32GTE(i32 noundef %0, i32 noundef %1) #3 {
  %3 = alloca i32, align 4
  %4 = alloca i32, align 4
  store i32 %0, ptr %3, align 4, !tbaa !8
  store i32 %1, ptr %4, align 4, !tbaa !8
  %5 = load i32, ptr %3, align 4, !tbaa !8
  %6 = zext i32 %5 to i64
  %7 = load i32, ptr %4, align 4, !tbaa !8
  %8 = zext i32 %7 to i64
  %9 = sub i64 %6, %8
  %10 = lshr i64 %9, 63
  %11 = sub i64 %10, 1
  %12 = trunc i64 %11 to i32
  ret i32 %12
}

; Function Attrs: inlinehint nounwind uwtable
define internal void @ForceZero(ptr noundef %0, i32 noundef %1) #3 {
  %3 = alloca ptr, align 8
  %4 = alloca i32, align 4
  %5 = alloca ptr, align 8
  %6 = alloca ptr, align 8
  %7 = alloca i32, align 4
  store ptr %0, ptr %3, align 8, !tbaa !10
  store i32 %1, ptr %4, align 4, !tbaa !8
  call void @llvm.lifetime.start.p0(i64 8, ptr %5) #6
  %8 = load ptr, ptr %3, align 8, !tbaa !10
  store ptr %8, ptr %5, align 8, !tbaa !3
  call void @llvm.lifetime.start.p0(i64 8, ptr %6) #6
  call void @llvm.lifetime.start.p0(i64 4, ptr %7) #6
  %9 = load ptr, ptr %5, align 8, !tbaa !3
  %10 = ptrtoint ptr %9 to i64
  %11 = and i64 %10, 7
  %12 = sub i64 8, %11
  %13 = and i64 %12, 7
  %14 = trunc i64 %13 to i32
  store i32 %14, ptr %7, align 4, !tbaa !8
  %15 = load i32, ptr %4, align 4, !tbaa !8
  %16 = load i32, ptr %7, align 4, !tbaa !8
  %17 = icmp ult i32 %15, %16
  br i1 %17, label %18, label %20

18:                                               ; preds = %2
  %19 = load i32, ptr %4, align 4, !tbaa !8
  store i32 %19, ptr %7, align 4, !tbaa !8
  br label %20

20:                                               ; preds = %18, %2
  %21 = load i32, ptr %7, align 4, !tbaa !8
  %22 = load i32, ptr %4, align 4, !tbaa !8
  %23 = sub i32 %22, %21
  store i32 %23, ptr %4, align 4, !tbaa !8
  br label %24

24:                                               ; preds = %28, %20
  %25 = load i32, ptr %7, align 4, !tbaa !8
  %26 = add i32 %25, -1
  store i32 %26, ptr %7, align 4, !tbaa !8
  %27 = icmp ne i32 %25, 0
  br i1 %27, label %28, label %31

28:                                               ; preds = %24
  %29 = load ptr, ptr %5, align 8, !tbaa !3
  %30 = getelementptr inbounds nuw i8, ptr %29, i32 1
  store ptr %30, ptr %5, align 8, !tbaa !3
  store volatile i8 0, ptr %29, align 1, !tbaa !13
  br label %24, !llvm.loop !14

31:                                               ; preds = %24
  %32 = load ptr, ptr %5, align 8, !tbaa !3
  store ptr %32, ptr %6, align 8, !tbaa !15
  br label %33

33:                                               ; preds = %40, %31
  %34 = load i32, ptr %4, align 4, !tbaa !8
  %35 = zext i32 %34 to i64
  %36 = icmp uge i64 %35, 8
  br i1 %36, label %37, label %43

37:                                               ; preds = %33
  %38 = load ptr, ptr %6, align 8, !tbaa !15
  %39 = getelementptr inbounds nuw i64, ptr %38, i32 1
  store ptr %39, ptr %6, align 8, !tbaa !15
  store volatile i64 0, ptr %38, align 8, !tbaa !17
  br label %40

40:                                               ; preds = %37
  %41 = load i32, ptr %4, align 4, !tbaa !8
  %42 = sub i32 %41, 8
  store i32 %42, ptr %4, align 4, !tbaa !8
  br label %33, !llvm.loop !19

43:                                               ; preds = %33
  %44 = load ptr, ptr %6, align 8, !tbaa !15
  store ptr %44, ptr %5, align 8, !tbaa !3
  br label %45

45:                                               ; preds = %49, %43
  %46 = load i32, ptr %4, align 4, !tbaa !8
  %47 = add i32 %46, -1
  store i32 %47, ptr %4, align 4, !tbaa !8
  %48 = icmp ne i32 %46, 0
  br i1 %48, label %49, label %52

49:                                               ; preds = %45
  %50 = load ptr, ptr %5, align 8, !tbaa !3
  %51 = getelementptr inbounds nuw i8, ptr %50, i32 1
  store ptr %51, ptr %5, align 8, !tbaa !3
  store volatile i8 0, ptr %50, align 1, !tbaa !13
  br label %45, !llvm.loop !20

52:                                               ; preds = %45
  call void @llvm.lifetime.end.p0(i64 4, ptr %7) #6
  call void @llvm.lifetime.end.p0(i64 8, ptr %6) #6
  call void @llvm.lifetime.end.p0(i64 8, ptr %5) #6
  ret void
}

; Function Attrs: inlinehint nounwind uwtable
define internal i32 @min(i32 noundef %0, i32 noundef %1) #3 {
  %3 = alloca i32, align 4
  %4 = alloca i32, align 4
  %5 = alloca i32, align 4
  store i32 %0, ptr %3, align 4, !tbaa !8
  store i32 %1, ptr %4, align 4, !tbaa !8
  call void @llvm.lifetime.start.p0(i64 4, ptr %5) #6
  %6 = load i32, ptr %3, align 4, !tbaa !8
  %7 = load i32, ptr %4, align 4, !tbaa !8
  %8 = call i32 @ctMaskWord32GTE(i32 noundef %6, i32 noundef %7)
  store i32 %8, ptr %5, align 4, !tbaa !8
  %9 = load i32, ptr %3, align 4, !tbaa !8
  %10 = load i32, ptr %5, align 4, !tbaa !8
  %11 = xor i32 %10, -1
  %12 = and i32 %9, %11
  %13 = load i32, ptr %4, align 4, !tbaa !8
  %14 = load i32, ptr %5, align 4, !tbaa !8
  %15 = and i32 %13, %14
  %16 = or i32 %12, %15
  call void @llvm.lifetime.end.p0(i64 4, ptr %5) #6
  ret i32 %16
}

; Function Attrs: nounwind uwtable
define i32 @wc_PRF(ptr noundef %0, i32 noundef %1, ptr noundef %2, i32 noundef %3, ptr noundef %4, i32 noundef %5, i32 noundef %6, ptr noundef %7, i32 noundef %8) #0 {
  %10 = alloca i32, align 4
  %11 = alloca ptr, align 8
  %12 = alloca i32, align 4
  %13 = alloca ptr, align 8
  %14 = alloca i32, align 4
  %15 = alloca ptr, align 8
  %16 = alloca i32, align 4
  %17 = alloca i32, align 4
  %18 = alloca ptr, align 8
  %19 = alloca i32, align 4
  %20 = alloca i32, align 4
  %21 = alloca i32, align 4
  %22 = alloca i32, align 4
  %23 = alloca i32, align 4
  %24 = alloca i32, align 4
  %25 = alloca [64 x i8], align 16
  %26 = alloca [1 x %struct.Hmac], align 16
  %27 = alloca i32, align 4
  %28 = alloca i32, align 4
  %29 = alloca i32, align 4
  store ptr %0, ptr %11, align 8, !tbaa !3
  store i32 %1, ptr %12, align 4, !tbaa !8
  store ptr %2, ptr %13, align 8, !tbaa !3
  store i32 %3, ptr %14, align 4, !tbaa !8
  store ptr %4, ptr %15, align 8, !tbaa !3
  store i32 %5, ptr %16, align 4, !tbaa !8
  store i32 %6, ptr %17, align 4, !tbaa !8
  store ptr %7, ptr %18, align 8, !tbaa !10
  store i32 %8, ptr %19, align 4, !tbaa !8
  call void @llvm.lifetime.start.p0(i64 4, ptr %20) #6
  store i32 64, ptr %20, align 4, !tbaa !8
  call void @llvm.lifetime.start.p0(i64 4, ptr %21) #6
  call void @llvm.lifetime.start.p0(i64 4, ptr %22) #6
  call void @llvm.lifetime.start.p0(i64 4, ptr %23) #6
  call void @llvm.lifetime.start.p0(i64 4, ptr %24) #6
  store i32 0, ptr %24, align 4, !tbaa !8
  call void @llvm.lifetime.start.p0(i64 64, ptr %25) #6
  call void @llvm.lifetime.start.p0(i64 784, ptr %26) #6
  %30 = load i32, ptr %17, align 4, !tbaa !8
  switch i32 %30, label %36 [
    i32 1, label %31
    i32 4, label %32
    i32 5, label %33
    i32 6, label %34
    i32 2, label %35
  ]

31:                                               ; preds = %9
  store i32 3, ptr %17, align 4, !tbaa !8
  store i32 16, ptr %20, align 4, !tbaa !8
  br label %37

32:                                               ; preds = %9
  store i32 6, ptr %17, align 4, !tbaa !8
  store i32 32, ptr %20, align 4, !tbaa !8
  br label %37

33:                                               ; preds = %9
  store i32 7, ptr %17, align 4, !tbaa !8
  store i32 48, ptr %20, align 4, !tbaa !8
  br label %37

34:                                               ; preds = %9
  store i32 8, ptr %17, align 4, !tbaa !8
  store i32 64, ptr %20, align 4, !tbaa !8
  br label %37

35:                                               ; preds = %9
  store i32 4, ptr %17, align 4, !tbaa !8
  store i32 20, ptr %20, align 4, !tbaa !8
  br label %37

36:                                               ; preds = %9
  store i32 -232, ptr %10, align 4
  store i32 1, ptr %27, align 4
  br label %169

37:                                               ; preds = %35, %34, %33, %32, %31
  %38 = load i32, ptr %12, align 4, !tbaa !8
  %39 = load i32, ptr %20, align 4, !tbaa !8
  %40 = udiv i32 %38, %39
  store i32 %40, ptr %21, align 4, !tbaa !8
  %41 = load i32, ptr %12, align 4, !tbaa !8
  %42 = load i32, ptr %20, align 4, !tbaa !8
  %43 = urem i32 %41, %42
  store i32 %43, ptr %22, align 4, !tbaa !8
  %44 = load i32, ptr %22, align 4, !tbaa !8
  %45 = icmp ne i32 %44, 0
  br i1 %45, label %46, label %49

46:                                               ; preds = %37
  %47 = load i32, ptr %21, align 4, !tbaa !8
  %48 = add i32 %47, 1
  store i32 %48, ptr %21, align 4, !tbaa !8
  br label %49

49:                                               ; preds = %46, %37
  %50 = load i32, ptr %21, align 4, !tbaa !8
  %51 = icmp eq i32 %50, 0
  br i1 %51, label %52, label %53

52:                                               ; preds = %49
  store i32 -173, ptr %10, align 4
  store i32 1, ptr %27, align 4
  br label %169

53:                                               ; preds = %49
  %54 = load i32, ptr %21, align 4, !tbaa !8
  %55 = sub i32 %54, 1
  store i32 %55, ptr %23, align 4, !tbaa !8
  %56 = getelementptr inbounds [1 x %struct.Hmac], ptr %26, i64 0, i64 0
  %57 = load ptr, ptr %18, align 8, !tbaa !10
  %58 = load i32, ptr %19, align 4, !tbaa !8
  %59 = call i32 @wc_HmacInit(ptr noundef %56, ptr noundef %57, i32 noundef %58)
  store i32 %59, ptr %24, align 4, !tbaa !8
  %60 = load i32, ptr %24, align 4, !tbaa !8
  %61 = icmp eq i32 %60, 0
  br i1 %61, label %62, label %165

62:                                               ; preds = %53
  %63 = getelementptr inbounds [1 x %struct.Hmac], ptr %26, i64 0, i64 0
  %64 = load i32, ptr %17, align 4, !tbaa !8
  %65 = load ptr, ptr %13, align 8, !tbaa !3
  %66 = load i32, ptr %14, align 4, !tbaa !8
  %67 = call i32 @wc_HmacSetKey(ptr noundef %63, i32 noundef %64, ptr noundef %65, i32 noundef %66)
  store i32 %67, ptr %24, align 4, !tbaa !8
  %68 = load i32, ptr %24, align 4, !tbaa !8
  %69 = icmp eq i32 %68, 0
  br i1 %69, label %70, label %75

70:                                               ; preds = %62
  %71 = getelementptr inbounds [1 x %struct.Hmac], ptr %26, i64 0, i64 0
  %72 = load ptr, ptr %15, align 8, !tbaa !3
  %73 = load i32, ptr %16, align 4, !tbaa !8
  %74 = call i32 @wc_HmacUpdate(ptr noundef %71, ptr noundef %72, i32 noundef %73)
  store i32 %74, ptr %24, align 4, !tbaa !8
  br label %75

75:                                               ; preds = %70, %62
  %76 = load i32, ptr %24, align 4, !tbaa !8
  %77 = icmp eq i32 %76, 0
  br i1 %77, label %78, label %82

78:                                               ; preds = %75
  %79 = getelementptr inbounds [1 x %struct.Hmac], ptr %26, i64 0, i64 0
  %80 = getelementptr inbounds [64 x i8], ptr %25, i64 0, i64 0
  %81 = call i32 @wc_HmacFinal(ptr noundef %79, ptr noundef %80)
  store i32 %81, ptr %24, align 4, !tbaa !8
  br label %82

82:                                               ; preds = %78, %75
  %83 = load i32, ptr %24, align 4, !tbaa !8
  %84 = icmp eq i32 %83, 0
  br i1 %84, label %85, label %163

85:                                               ; preds = %82
  call void @llvm.lifetime.start.p0(i64 4, ptr %28) #6
  call void @llvm.lifetime.start.p0(i64 4, ptr %29) #6
  store i32 0, ptr %29, align 4, !tbaa !8
  store i32 0, ptr %28, align 4, !tbaa !8
  br label %86

86:                                               ; preds = %159, %85
  %87 = load i32, ptr %28, align 4, !tbaa !8
  %88 = load i32, ptr %21, align 4, !tbaa !8
  %89 = icmp ult i32 %87, %88
  br i1 %89, label %90, label %162

90:                                               ; preds = %86
  %91 = getelementptr inbounds [1 x %struct.Hmac], ptr %26, i64 0, i64 0
  %92 = getelementptr inbounds [64 x i8], ptr %25, i64 0, i64 0
  %93 = load i32, ptr %20, align 4, !tbaa !8
  %94 = call i32 @wc_HmacUpdate(ptr noundef %91, ptr noundef %92, i32 noundef %93)
  store i32 %94, ptr %24, align 4, !tbaa !8
  %95 = load i32, ptr %24, align 4, !tbaa !8
  %96 = icmp ne i32 %95, 0
  br i1 %96, label %97, label %98

97:                                               ; preds = %90
  br label %162

98:                                               ; preds = %90
  %99 = getelementptr inbounds [1 x %struct.Hmac], ptr %26, i64 0, i64 0
  %100 = load ptr, ptr %15, align 8, !tbaa !3
  %101 = load i32, ptr %16, align 4, !tbaa !8
  %102 = call i32 @wc_HmacUpdate(ptr noundef %99, ptr noundef %100, i32 noundef %101)
  store i32 %102, ptr %24, align 4, !tbaa !8
  %103 = load i32, ptr %24, align 4, !tbaa !8
  %104 = icmp ne i32 %103, 0
  br i1 %104, label %105, label %106

105:                                              ; preds = %98
  br label %162

106:                                              ; preds = %98
  %107 = load i32, ptr %28, align 4, !tbaa !8
  %108 = load i32, ptr %23, align 4, !tbaa !8
  %109 = icmp ne i32 %107, %108
  br i1 %109, label %113, label %110

110:                                              ; preds = %106
  %111 = load i32, ptr %22, align 4, !tbaa !8
  %112 = icmp ne i32 %111, 0
  br i1 %112, label %142, label %113

113:                                              ; preds = %110, %106
  %114 = getelementptr inbounds [1 x %struct.Hmac], ptr %26, i64 0, i64 0
  %115 = load ptr, ptr %11, align 8, !tbaa !3
  %116 = load i32, ptr %29, align 4, !tbaa !8
  %117 = zext i32 %116 to i64
  %118 = getelementptr inbounds nuw i8, ptr %115, i64 %117
  %119 = call i32 @wc_HmacFinal(ptr noundef %114, ptr noundef %118)
  store i32 %119, ptr %24, align 4, !tbaa !8
  %120 = load i32, ptr %24, align 4, !tbaa !8
  %121 = icmp ne i32 %120, 0
  br i1 %121, label %122, label %123

122:                                              ; preds = %113
  br label %162

123:                                              ; preds = %113
  %124 = load i32, ptr %20, align 4, !tbaa !8
  %125 = load i32, ptr %29, align 4, !tbaa !8
  %126 = add i32 %125, %124
  store i32 %126, ptr %29, align 4, !tbaa !8
  %127 = getelementptr inbounds [1 x %struct.Hmac], ptr %26, i64 0, i64 0
  %128 = getelementptr inbounds [64 x i8], ptr %25, i64 0, i64 0
  %129 = load i32, ptr %20, align 4, !tbaa !8
  %130 = call i32 @wc_HmacUpdate(ptr noundef %127, ptr noundef %128, i32 noundef %129)
  store i32 %130, ptr %24, align 4, !tbaa !8
  %131 = load i32, ptr %24, align 4, !tbaa !8
  %132 = icmp ne i32 %131, 0
  br i1 %132, label %133, label %134

133:                                              ; preds = %123
  br label %162

134:                                              ; preds = %123
  %135 = getelementptr inbounds [1 x %struct.Hmac], ptr %26, i64 0, i64 0
  %136 = getelementptr inbounds [64 x i8], ptr %25, i64 0, i64 0
  %137 = call i32 @wc_HmacFinal(ptr noundef %135, ptr noundef %136)
  store i32 %137, ptr %24, align 4, !tbaa !8
  %138 = load i32, ptr %24, align 4, !tbaa !8
  %139 = icmp ne i32 %138, 0
  br i1 %139, label %140, label %141

140:                                              ; preds = %134
  br label %162

141:                                              ; preds = %134
  br label %158

142:                                              ; preds = %110
  %143 = getelementptr inbounds [1 x %struct.Hmac], ptr %26, i64 0, i64 0
  %144 = getelementptr inbounds [64 x i8], ptr %25, i64 0, i64 0
  %145 = call i32 @wc_HmacFinal(ptr noundef %143, ptr noundef %144)
  store i32 %145, ptr %24, align 4, !tbaa !8
  %146 = load i32, ptr %24, align 4, !tbaa !8
  %147 = icmp ne i32 %146, 0
  br i1 %147, label %148, label %149

148:                                              ; preds = %142
  br label %162

149:                                              ; preds = %142
  %150 = load ptr, ptr %11, align 8, !tbaa !3
  %151 = load i32, ptr %29, align 4, !tbaa !8
  %152 = zext i32 %151 to i64
  %153 = getelementptr inbounds nuw i8, ptr %150, i64 %152
  %154 = getelementptr inbounds [64 x i8], ptr %25, i64 0, i64 0
  %155 = load i32, ptr %22, align 4, !tbaa !8
  %156 = call i32 @min(i32 noundef %155, i32 noundef 64)
  %157 = zext i32 %156 to i64
  call void @llvm.memcpy.p0.p0.i64(ptr align 1 %153, ptr align 16 %154, i64 %157, i1 false)
  br label %158

158:                                              ; preds = %149, %141
  br label %159

159:                                              ; preds = %158
  %160 = load i32, ptr %28, align 4, !tbaa !8
  %161 = add i32 %160, 1
  store i32 %161, ptr %28, align 4, !tbaa !8
  br label %86, !llvm.loop !11

162:                                              ; preds = %148, %140, %133, %122, %105, %97, %86
  call void @llvm.lifetime.end.p0(i64 4, ptr %29) #6
  call void @llvm.lifetime.end.p0(i64 4, ptr %28) #6
  br label %163

163:                                              ; preds = %162, %82
  %164 = getelementptr inbounds [1 x %struct.Hmac], ptr %26, i64 0, i64 0
  call void @wc_HmacFree(ptr noundef %164)
  br label %165

165:                                              ; preds = %163, %53
  %166 = getelementptr inbounds [64 x i8], ptr %25, i64 0, i64 0
  call void @ForceZero(ptr noundef %166, i32 noundef 64)
  %167 = getelementptr inbounds [1 x %struct.Hmac], ptr %26, i64 0, i64 0
  call void @ForceZero(ptr noundef %167, i32 noundef 784)
  %168 = load i32, ptr %24, align 4, !tbaa !8
  store i32 %168, ptr %10, align 4
  store i32 1, ptr %27, align 4
  br label %169

169:                                              ; preds = %165, %52, %36
  call void @llvm.lifetime.end.p0(i64 784, ptr %26) #6
  call void @llvm.lifetime.end.p0(i64 64, ptr %25) #6
  call void @llvm.lifetime.end.p0(i64 4, ptr %24) #6
  call void @llvm.lifetime.end.p0(i64 4, ptr %23) #6
  call void @llvm.lifetime.end.p0(i64 4, ptr %22) #6
  call void @llvm.lifetime.end.p0(i64 4, ptr %21) #6
  call void @llvm.lifetime.end.p0(i64 4, ptr %20) #6
  %170 = load i32, ptr %10, align 4
  ret i32 %170
}