; Function Attrs: nounwind uwtable
define i32 @wc_PRF(ptr noundef %0, i32 noundef %1, ptr noundef %2, i32 noundef %3, ptr noundef %4, i32 noundef %5, i32 noundef %6, ptr noundef %7, i32 noundef %8) local_unnamed_addr #0 {
  %10 = alloca [64 x i8], align 16
  %11 = alloca [1 x %struct.Hmac], align 16
  call void @llvm.lifetime.start.p0(i64 64, ptr nonnull %10) #6
  call void @llvm.lifetime.start.p0(i64 784, ptr nonnull %11) #6
  %switch.tableidx = add i32 %6, -1
  %12 = icmp ult i32 %switch.tableidx, 6
  br i1 %12, label %switch.hole_check, label %ForceZero.exit86

switch.hole_check:                                ; preds = %9
  %switch.maskindex = trunc nuw i32 %switch.tableidx to i8
  %switch.shifted = lshr i8 59, %switch.maskindex
  %switch.lobit = trunc i8 %switch.shifted to i1
  br i1 %switch.lobit, label %switch.lookup, label %ForceZero.exit86

switch.lookup:                                    ; preds = %switch.hole_check
  %13 = zext nneg i32 %switch.tableidx to i64
  %switch.gep = getelementptr inbounds nuw [6 x i32], ptr @switch.table.wc_PRF, i64 0, i64 %13
  %switch.load = load i32, ptr %switch.gep, align 4
  %14 = zext nneg i32 %switch.tableidx to i64
  %switch.gep101 = getelementptr inbounds nuw [6 x i32], ptr @switch.table.wc_PRF.1, i64 0, i64 %14
  %switch.load102 = load i32, ptr %switch.gep101, align 4
  %15 = udiv i32 %1, %switch.load
  %16 = urem i32 %1, %switch.load
  %17 = icmp ne i32 %16, 0
  %18 = zext i1 %17 to i32
  %spec.select = add nuw nsw i32 %15, %18
  %19 = icmp eq i32 %spec.select, 0
  br i1 %19, label %ForceZero.exit86, label %20

20:                                               ; preds = %switch.lookup
  %21 = add nsw i32 %spec.select, -1
  %22 = call i32 @wc_HmacInit(ptr noundef nonnull %11, ptr noundef %7, i32 noundef %8) #6
  %23 = icmp eq i32 %22, 0
  br i1 %23, label %24, label %.preheader23.i

24:                                               ; preds = %20
  %25 = call i32 @wc_HmacSetKey(ptr noundef nonnull %11, i32 noundef %switch.load102, ptr noundef %2, i32 noundef %3) #6
  %26 = icmp eq i32 %25, 0
  br i1 %26, label %27, label %.thread88

27:                                               ; preds = %24
  %28 = call i32 @wc_HmacUpdate(ptr noundef nonnull %11, ptr noundef %4, i32 noundef %5) #6
  %29 = icmp eq i32 %28, 0
  br i1 %29, label %30, label %.thread88

30:                                               ; preds = %27
  %31 = call i32 @wc_HmacFinal(ptr noundef nonnull %11, ptr noundef nonnull %10) #6
  %32 = icmp eq i32 %31, 0
  br i1 %32, label %.preheader, label %.thread88

.preheader:                                       ; preds = %30
  %33 = zext nneg i32 %16 to i64
  br i1 %17, label %.preheader.split, label %.preheader.split.us

.preheader.split.us:                              ; preds = %.preheader, %45
  %.093.us = phi i32 [ %46, %45 ], [ 0, %.preheader ]
  %.04592.us = phi i32 [ %47, %45 ], [ 0, %.preheader ]
  %34 = call i32 @wc_HmacUpdate(ptr noundef nonnull %11, ptr noundef nonnull %10, i32 noundef %switch.load) #6
  %.not.us = icmp eq i32 %34, 0
  br i1 %.not.us, label %35, label %.thread88

35:                                               ; preds = %.preheader.split.us
  %36 = call i32 @wc_HmacUpdate(ptr noundef nonnull %11, ptr noundef %4, i32 noundef %5) #6
  %.not63.us = icmp eq i32 %36, 0
  br i1 %.not63.us, label %37, label %.thread88

37:                                               ; preds = %35
  %38 = zext i32 %.093.us to i64
  %39 = getelementptr inbounds nuw i8, ptr %0, i64 %38
  %40 = call i32 @wc_HmacFinal(ptr noundef nonnull %11, ptr noundef %39) #6
  %.not64.us = icmp eq i32 %40, 0
  br i1 %.not64.us, label %41, label %.thread88

41:                                               ; preds = %37
  %42 = call i32 @wc_HmacUpdate(ptr noundef nonnull %11, ptr noundef nonnull %10, i32 noundef %switch.load) #6
  %.not65.us = icmp eq i32 %42, 0
  br i1 %.not65.us, label %43, label %.thread88

43:                                               ; preds = %41
  %44 = call i32 @wc_HmacFinal(ptr noundef nonnull %11, ptr noundef nonnull %10) #6
  %.not66.us = icmp eq i32 %44, 0
  br i1 %.not66.us, label %45, label %.thread88

45:                                               ; preds = %43
  %46 = add i32 %.093.us, %switch.load
  %47 = add nuw nsw i32 %.04592.us, 1
  %exitcond.not = icmp eq i32 %47, %spec.select
  br i1 %exitcond.not, label %.thread88, label %.preheader.split.us, !llvm.loop !3

.preheader.split:                                 ; preds = %.preheader, %67
  %.093 = phi i32 [ %.1, %67 ], [ 0, %.preheader ]
  %.04592 = phi i32 [ %68, %67 ], [ 0, %.preheader ]
  %48 = call i32 @wc_HmacUpdate(ptr noundef nonnull %11, ptr noundef nonnull %10, i32 noundef %switch.load) #6
  %.not = icmp eq i32 %48, 0
  br i1 %.not, label %49, label %.thread88

49:                                               ; preds = %.preheader.split
  %50 = call i32 @wc_HmacUpdate(ptr noundef nonnull %11, ptr noundef %4, i32 noundef %5) #6
  %.not63 = icmp eq i32 %50, 0
  br i1 %.not63, label %51, label %.thread88

51:                                               ; preds = %49
  %52 = icmp eq i32 %.04592, %21
  br i1 %52, label %62, label %53

53:                                               ; preds = %51
  %54 = zext i32 %.093 to i64
  %55 = getelementptr inbounds nuw i8, ptr %0, i64 %54
  %56 = call i32 @wc_HmacFinal(ptr noundef nonnull %11, ptr noundef %55) #6
  %.not64 = icmp eq i32 %56, 0
  br i1 %.not64, label %57, label %.thread88

57:                                               ; preds = %53
  %58 = call i32 @wc_HmacUpdate(ptr noundef nonnull %11, ptr noundef nonnull %10, i32 noundef %switch.load) #6
  %.not65 = icmp eq i32 %58, 0
  br i1 %.not65, label %59, label %.thread88

59:                                               ; preds = %57
  %60 = add i32 %.093, %switch.load
  %61 = call i32 @wc_HmacFinal(ptr noundef nonnull %11, ptr noundef nonnull %10) #6
  %.not66 = icmp eq i32 %61, 0
  br i1 %.not66, label %67, label %.thread88

62:                                               ; preds = %51
  %63 = call i32 @wc_HmacFinal(ptr noundef nonnull %11, ptr noundef nonnull %10) #6
  %.not67 = icmp eq i32 %63, 0
  br i1 %.not67, label %64, label %.thread88

64:                                               ; preds = %62
  %65 = zext i32 %.093 to i64
  %66 = getelementptr inbounds nuw i8, ptr %0, i64 %65
  call void @llvm.memcpy.p0.p0.i64(ptr noundef nonnull align 1 dereferenceable(1) %66, ptr noundef nonnull align 16 dereferenceable(1) %10, i64 %33, i1 false)
  br label %67

67:                                               ; preds = %64, %59
  %.1 = phi i32 [ %.093, %64 ], [ %60, %59 ]
  %68 = add nuw nsw i32 %.04592, 1
  %exitcond96.not = icmp eq i32 %68, %spec.select
  br i1 %exitcond96.not, label %.thread88, label %.preheader.split, !llvm.loop !3

.thread88:                                        ; preds = %45, %43, %41, %37, %35, %.preheader.split.us, %62, %59, %57, %53, %49, %.preheader.split, %67, %24, %27, %30
  %.3 = phi i32 [ %31, %30 ], [ %28, %27 ], [ %25, %24 ], [ 0, %67 ], [ %61, %59 ], [ %58, %57 ], [ %56, %53 ], [ %63, %62 ], [ %50, %49 ], [ %48, %.preheader.split ], [ 0, %45 ], [ %44, %43 ], [ %42, %41 ], [ %40, %37 ], [ %36, %35 ], [ %34, %.preheader.split.us ]
  call void @wc_HmacFree(ptr noundef nonnull %11) #6
  br label %.preheader23.i

.preheader23.i:                                   ; preds = %20, %.thread88
  %.046 = phi i32 [ %.3, %.thread88 ], [ %22, %20 ]
  br label %.lr.ph29.i

.lr.ph29.i:                                       ; preds = %.preheader23.i, %.lr.ph29.i
  %.01528.i = phi ptr [ %69, %.lr.ph29.i ], [ %10, %.preheader23.i ]
  %.01827.i = phi i32 [ %70, %.lr.ph29.i ], [ 64, %.preheader23.i ]
  %69 = getelementptr inbounds nuw i8, ptr %.01528.i, i64 8
  store volatile i64 0, ptr %.01528.i, align 8, !tbaa !5
  %70 = add nsw i32 %.01827.i, -8
  %.not90 = icmp eq i32 %70, 0
  br i1 %.not90, label %.lr.ph29.i83, label %.lr.ph29.i, !llvm.loop !9

.lr.ph29.i83:                                     ; preds = %.lr.ph29.i, %.lr.ph29.i83
  %.01528.i84 = phi ptr [ %71, %.lr.ph29.i83 ], [ %11, %.lr.ph29.i ]
  %.01827.i85 = phi i32 [ %72, %.lr.ph29.i83 ], [ 784, %.lr.ph29.i ]
  %71 = getelementptr inbounds nuw i8, ptr %.01528.i84, i64 8
  store volatile i64 0, ptr %.01528.i84, align 8, !tbaa !5
  %72 = add nsw i32 %.01827.i85, -8
  %.not91 = icmp eq i32 %72, 0
  br i1 %.not91, label %ForceZero.exit86, label %.lr.ph29.i83, !llvm.loop !9

ForceZero.exit86:                                 ; preds = %.lr.ph29.i83, %switch.hole_check, %9, %switch.lookup
  %.048 = phi i32 [ -232, %9 ], [ -173, %switch.lookup ], [ -232, %switch.hole_check ], [ %.046, %.lr.ph29.i83 ]
  call void @llvm.lifetime.end.p0(i64 784, ptr nonnull %11) #6
  call void @llvm.lifetime.end.p0(i64 64, ptr nonnull %10) #6
  ret i32 %.048
}